target datalayout = "e-m:e-p270:32:32-p271:32:32-p272:64:64-i64:64-i128:128-f80:128-n8:16:32:64-S128"
target triple = "x86_64-unknown-linux-gnu"

%"class.grpc_core::TraceFlag" = type <{ ptr, ptr, %"struct.std::atomic", [7 x i8] }>
%"struct.std::atomic" = type { %"struct.std::__atomic_base" }
%"struct.std::__atomic_base" = type { i8 }
%"class.grpc_core::RefCountedPtr.2" = type { ptr }
%"class.grpc_core::RefCounted.3" = type { %"class.grpc_core::RefCount" }
%"class.grpc_core::RefCount" = type { %"struct.std::atomic.0" }
%"struct.std::atomic.0" = type { %"struct.std::__atomic_base.1" }
%"struct.std::__atomic_base.1" = type { i64 }
%struct.grpc_auth_context = type { %"class.grpc_core::RefCounted.3", %"class.grpc_core::RefCountedPtr.2", %struct.grpc_auth_property_array, ptr, %"class.std::unique_ptr" }
%struct.grpc_auth_property_array = type { ptr, i64, i64 }
%"class.std::unique_ptr" = type { %"struct.std::__uniq_ptr_data" }
%"struct.std::__uniq_ptr_data" = type { %"class.std::__uniq_ptr_impl" }
%"class.std::__uniq_ptr_impl" = type { %"class.std::tuple" }
%"class.std::tuple" = type { %"struct.std::_Tuple_impl" }
%"struct.std::_Tuple_impl" = type { %"struct.std::_Head_base.5" }
%"struct.std::_Head_base.5" = type { ptr }
%struct.grpc_auth_property = type { ptr, ptr, i64 }

@grpc_api_trace = external global %"class.grpc_core::TraceFlag", align 8
@.str = private unnamed_addr constant [137 x i8] c"generated/home/dtcxzyw/WorkSpace/Projects/compilers/llvm-opt-benchmark/bench/grpc/grpc/src/core/lib/security/context/security_context.cc\00", align 1
@.str.20 = private unnamed_addr constant [79 x i8] c"grpc_auth_context_add_property(ctx=%p, name=%s, value=%*.*s, value_length=%lu)\00", align 1

; Function Attrs: mustprogress nounwind uwtable
define linkonce_odr noundef nonnull align 8 dereferenceable(8) ptr @_ZSt3maxImERKT_S2_S2_(ptr noundef nonnull align 8 dereferenceable(8) %__a, ptr noundef nonnull align 8 dereferenceable(8) %__b) #5 comdat {
entry:
  %retval = alloca ptr, align 8
  %__a.addr = alloca ptr, align 8
  %__b.addr = alloca ptr, align 8
  store ptr %__a, ptr %__a.addr, align 8
  store ptr %__b, ptr %__b.addr, align 8
  %0 = load ptr, ptr %__a.addr, align 8
  %1 = load i64, ptr %0, align 8
  %2 = load ptr, ptr %__b.addr, align 8
  %3 = load i64, ptr %2, align 8
  %cmp = icmp ult i64 %1, %3
  br i1 %cmp, label %if.then, label %if.end

if.then:                                          ; preds = %entry
  %4 = load ptr, ptr %__b.addr, align 8
  store ptr %4, ptr %retval, align 8
  br label %return

if.end:                                           ; preds = %entry
  %5 = load ptr, ptr %__a.addr, align 8
  store ptr %5, ptr %retval, align 8
  br label %return

return:                                           ; preds = %if.end, %if.then
  %6 = load ptr, ptr %retval, align 8
  ret ptr %6
}

; Function Attrs: noreturn nounwind uwtable
define linkonce_odr hidden void @__clang_call_terminate(ptr noundef %0) #6 comdat {
  %2 = call ptr @__cxa_begin_catch(ptr %0) #3
  call void @_ZSt9terminatev() #15
  unreachable
}

; Function Attrs: mustprogress nounwind uwtable
define linkonce_odr noundef i32 @_ZStanSt12memory_orderSt23__memory_order_modifier(i32 noundef %__m, i32 noundef %__mod) #5 comdat {
entry:
  %__m.addr = alloca i32, align 4
  %__mod.addr = alloca i32, align 4
  store i32 %__m, ptr %__m.addr, align 4
  store i32 %__mod, ptr %__mod.addr, align 4
  %0 = load i32, ptr %__m.addr, align 4
  %1 = load i32, ptr %__mod.addr, align 4
  %and = and i32 %0, %1
  ret i32 %and
}

; Function Attrs: mustprogress uwtable
define void @_ZN17grpc_auth_context15ensure_capacityEv(ptr noundef nonnull align 8 dereferenceable(56) %this) #4 align 2 {
entry:
  %this.addr = alloca ptr, align 8
  %ref.tmp = alloca i64, align 8
  %ref.tmp5 = alloca i64, align 8
  store ptr %this, ptr %this.addr, align 8
  %this1 = load ptr, ptr %this.addr, align 8
  %properties_ = getelementptr inbounds %struct.grpc_auth_context, ptr %this1, i32 0, i32 2
  %count = getelementptr inbounds %struct.grpc_auth_property_array, ptr %properties_, i32 0, i32 1
  %0 = load i64, ptr %count, align 8
  %properties_2 = getelementptr inbounds %struct.grpc_auth_context, ptr %this1, i32 0, i32 2
  %capacity = getelementptr inbounds %struct.grpc_auth_property_array, ptr %properties_2, i32 0, i32 2
  %1 = load i64, ptr %capacity, align 8
  %cmp = icmp eq i64 %0, %1
  br i1 %cmp, label %if.then, label %if.end

if.then:                                          ; preds = %entry
  %properties_3 = getelementptr inbounds %struct.grpc_auth_context, ptr %this1, i32 0, i32 2
  %capacity4 = getelementptr inbounds %struct.grpc_auth_property_array, ptr %properties_3, i32 0, i32 2
  %2 = load i64, ptr %capacity4, align 8
  %add = add i64 %2, 8
  store i64 %add, ptr %ref.tmp, align 8
  %properties_6 = getelementptr inbounds %struct.grpc_auth_context, ptr %this1, i32 0, i32 2
  %capacity7 = getelementptr inbounds %struct.grpc_auth_property_array, ptr %properties_6, i32 0, i32 2
  %3 = load i64, ptr %capacity7, align 8
  %mul = mul i64 %3, 2
  store i64 %mul, ptr %ref.tmp5, align 8
  %call = call noundef nonnull align 8 dereferenceable(8) ptr @_ZSt3maxImERKT_S2_S2_(ptr noundef nonnull align 8 dereferenceable(8) %ref.tmp, ptr noundef nonnull align 8 dereferenceable(8) %ref.tmp5)
  %4 = load i64, ptr %call, align 8
  %properties_8 = getelementptr inbounds %struct.grpc_auth_context, ptr %this1, i32 0, i32 2
  %capacity9 = getelementptr inbounds %struct.grpc_auth_property_array, ptr %properties_8, i32 0, i32 2
  store i64 %4, ptr %capacity9, align 8
  %properties_10 = getelementptr inbounds %struct.grpc_auth_context, ptr %this1, i32 0, i32 2
  %array = getelementptr inbounds %struct.grpc_auth_property_array, ptr %properties_10, i32 0, i32 0
  %5 = load ptr, ptr %array, align 8
  %properties_11 = getelementptr inbounds %struct.grpc_auth_context, ptr %this1, i32 0, i32 2
  %capacity12 = getelementptr inbounds %struct.grpc_auth_property_array, ptr %properties_11, i32 0, i32 2
  %6 = load i64, ptr %capacity12, align 8
  %mul13 = mul i64 %6, 24
  %call14 = call ptr @gpr_realloc(ptr noundef %5, i64 noundef %mul13)
  %properties_15 = getelementptr inbounds %struct.grpc_auth_context, ptr %this1, i32 0, i32 2
  %array16 = getelementptr inbounds %struct.grpc_auth_property_array, ptr %properties_15, i32 0, i32 0
  store ptr %call14, ptr %array16, align 8
  br label %if.end

if.end:                                           ; preds = %if.then, %entry
  ret void
}

; Function Attrs: mustprogress nounwind uwtable
define linkonce_odr noundef zeroext i1 @_ZNKSt6atomicIbE4loadESt12memory_order(ptr noundef nonnull align 1 dereferenceable(1) %this, i32 noundef %__m) #5 comdat align 2 personality ptr @__gxx_personality_v0 {
entry:
  %this.addr.i = alloca ptr, align 8
  %__m.addr.i = alloca i32, align 4
  %__b.i = alloca i32, align 4
  %atomic-temp.i = alloca i8, align 1
  %this.addr = alloca ptr, align 8
  %__m.addr = alloca i32, align 4
  store ptr %this, ptr %this.addr, align 8
  store i32 %__m, ptr %__m.addr, align 4
  %this1 = load ptr, ptr %this.addr, align 8
  %_M_base = getelementptr inbounds %"struct.std::atomic", ptr %this1, i32 0, i32 0
  %0 = load i32, ptr %__m.addr, align 4
  store ptr %_M_base, ptr %this.addr.i, align 8
  store i32 %0, ptr %__m.addr.i, align 4
  %this1.i = load ptr, ptr %this.addr.i, align 8
  %1 = load i32, ptr %__m.addr.i, align 4
  %call.i = invoke noundef i32 @_ZStanSt12memory_orderSt23__memory_order_modifier(i32 noundef %1, i32 noundef 65535)
          to label %invoke.cont.i unwind label %terminate.lpad.i

invoke.cont.i:                                    ; preds = %entry
  store i32 %call.i, ptr %__b.i, align 4
  %2 = load i32, ptr %__m.addr.i, align 4
  switch i32 %2, label %monotonic.i [
    i32 1, label %acquire.i
    i32 2, label %acquire.i
    i32 5, label %seqcst.i
  ]

monotonic.i:                                      ; preds = %invoke.cont.i
  %3 = load atomic i8, ptr %this1.i monotonic, align 1
  store i8 %3, ptr %atomic-temp.i, align 1
  br label %_ZNKSt13__atomic_baseIbE4loadESt12memory_order.exit

acquire.i:                                        ; preds = %invoke.cont.i, %invoke.cont.i
  %4 = load atomic i8, ptr %this1.i acquire, align 1
  store i8 %4, ptr %atomic-temp.i, align 1
  br label %_ZNKSt13__atomic_baseIbE4loadESt12memory_order.exit

seqcst.i:                                         ; preds = %invoke.cont.i
  %5 = load atomic i8, ptr %this1.i seq_cst, align 1
  store i8 %5, ptr %atomic-temp.i, align 1
  br label %_ZNKSt13__atomic_baseIbE4loadESt12memory_order.exit

terminate.lpad.i:                                 ; preds = %entry
  %6 = landingpad { ptr, i32 }
          catch ptr null
  %7 = extractvalue { ptr, i32 } %6, 0
  call void @__clang_call_terminate(ptr %7) #15
  unreachable

_ZNKSt13__atomic_baseIbE4loadESt12memory_order.exit: ; preds = %seqcst.i, %acquire.i, %monotonic.i
  %8 = load i8, ptr %atomic-temp.i, align 1
  %tobool.i = trunc i8 %8 to i1
  ret i1 %tobool.i
}

; Function Attrs: mustprogress uwtable
define void @_ZN17grpc_auth_context12add_propertyEPKcS1_m(ptr noundef nonnull align 8 dereferenceable(56) %this, ptr noundef %name, ptr noundef %value, i64 noundef %value_length) #4 align 2 {
entry:
  %this.addr = alloca ptr, align 8
  %name.addr = alloca ptr, align 8
  %value.addr = alloca ptr, align 8
  %value_length.addr = alloca i64, align 8
  %prop = alloca ptr, align 8
  store ptr %this, ptr %this.addr, align 8
  store ptr %name, ptr %name.addr, align 8
  store ptr %value, ptr %value.addr, align 8
  store i64 %value_length, ptr %value_length.addr, align 8
  %this1 = load ptr, ptr %this.addr, align 8
  call void @_ZN17grpc_auth_context15ensure_capacityEv(ptr noundef nonnull align 8 dereferenceable(56) %this1)
  %properties_ = getelementptr inbounds %struct.grpc_auth_context, ptr %this1, i32 0, i32 2
  %array = getelementptr inbounds %struct.grpc_auth_property_array, ptr %properties_, i32 0, i32 0
  %0 = load ptr, ptr %array, align 8
  %properties_2 = getelementptr inbounds %struct.grpc_auth_context, ptr %this1, i32 0, i32 2
  %count = getelementptr inbounds %struct.grpc_auth_property_array, ptr %properties_2, i32 0, i32 1
  %1 = load i64, ptr %count, align 8
  %inc = add i64 %1, 1
  store i64 %inc, ptr %count, align 8
  %arrayidx = getelementptr inbounds %struct.grpc_auth_property, ptr %0, i64 %1
  store ptr %arrayidx, ptr %prop, align 8
  %2 = load ptr, ptr %name.addr, align 8
  %call = call ptr @gpr_strdup(ptr noundef %2)
  %3 = load ptr, ptr %prop, align 8
  %name3 = getelementptr inbounds %struct.grpc_auth_property, ptr %3, i32 0, i32 0
  store ptr %call, ptr %name3, align 8
  %4 = load i64, ptr %value_length.addr, align 8
  %add = add i64 %4, 1
  %call4 = call ptr @gpr_malloc(i64 noundef %add)
  %5 = load ptr, ptr %prop, align 8
  %value5 = getelementptr inbounds %struct.grpc_auth_property, ptr %5, i32 0, i32 1
  store ptr %call4, ptr %value5, align 8
  %6 = load ptr, ptr %value.addr, align 8
  %cmp = icmp ne ptr %6, null
  br i1 %cmp, label %if.then, label %if.end

if.then:                                          ; preds = %entry
  %7 = load ptr, ptr %prop, align 8
  %value6 = getelementptr inbounds %struct.grpc_auth_property, ptr %7, i32 0, i32 1
  %8 = load ptr, ptr %value6, align 8
  %9 = load ptr, ptr %value.addr, align 8
  %10 = load i64, ptr %value_length.addr, align 8
  call void @llvm.memcpy.p0.p0.i64(ptr align 1 %8, ptr align 1 %9, i64 %10, i1 false)
  br label %if.end

if.end:                                           ; preds = %if.then, %entry
  %11 = load ptr, ptr %prop, align 8
  %value7 = getelementptr inbounds %struct.grpc_auth_property, ptr %11, i32 0, i32 1
  %12 = load ptr, ptr %value7, align 8
  %13 = load i64, ptr %value_length.addr, align 8
  %arrayidx8 = getelementptr inbounds i8, ptr %12, i64 %13
  store i8 0, ptr %arrayidx8, align 1
  %14 = load i64, ptr %value_length.addr, align 8
  %15 = load ptr, ptr %prop, align 8
  %value_length9 = getelementptr inbounds %struct.grpc_auth_property, ptr %15, i32 0, i32 2
  store i64 %14, ptr %value_length9, align 8
  ret void
}

; Function Attrs: mustprogress nounwind uwtable
define linkonce_odr noundef zeroext i1 @_ZN9grpc_core9TraceFlag7enabledEv(ptr noundef nonnull align 8 dereferenceable(17) %this) #5 comdat align 2 {
entry:
  %this.addr = alloca ptr, align 8
  store ptr %this, ptr %this.addr, align 8
  %this1 = load ptr, ptr %this.addr, align 8
  %value_ = getelementptr inbounds %"class.grpc_core::TraceFlag", ptr %this1, i32 0, i32 2
  %call = call noundef zeroext i1 @_ZNKSt6atomicIbE4loadESt12memory_order(ptr noundef nonnull align 1 dereferenceable(1) %value_, i32 noundef 0) #3
  ret i1 %call
}

; Function Attrs: mustprogress uwtable
define void @grpc_auth_context_add_property(ptr noundef %ctx, ptr noundef %name, ptr noundef %value, i64 noundef %value_length) #4 {
entry:
  %ctx.addr = alloca ptr, align 8
  %name.addr = alloca ptr, align 8
  %value.addr = alloca ptr, align 8
  %value_length.addr = alloca i64, align 8
  store ptr %ctx, ptr %ctx.addr, align 8
  store ptr %name, ptr %name.addr, align 8
  store ptr %value, ptr %value.addr, align 8
  store i64 %value_length, ptr %value_length.addr, align 8
  %call = call noundef zeroext i1 @_ZN9grpc_core9TraceFlag7enabledEv(ptr noundef nonnull align 8 dereferenceable(17) @grpc_api_trace)
  br i1 %call, label %if.then, label %if.end

if.then:                                          ; preds = %entry
  %0 = load ptr, ptr %ctx.addr, align 8
  %1 = load ptr, ptr %name.addr, align 8
  %2 = load i64, ptr %value_length.addr, align 8
  %conv = trunc i64 %2 to i32
  %3 = load i64, ptr %value_length.addr, align 8
  %conv1 = trunc i64 %3 to i32
  %4 = load ptr, ptr %value.addr, align 8
  %5 = load i64, ptr %value_length.addr, align 8
  call void (ptr, i32, i32, ptr, ...) @gpr_log(ptr noundef @.str, i32 noundef 254, i32 noundef 1, ptr noundef @.str.20, ptr noundef %0, ptr noundef %1, i32 noundef %conv, i32 noundef %conv1, ptr noundef %4, i64 noundef %5)
  br label %if.end

if.end:                                           ; preds = %if.then, %entry
  %6 = load ptr, ptr %ctx.addr, align 8
  %7 = load ptr, ptr %name.addr, align 8
  %8 = load ptr, ptr %value.addr, align 8
  %9 = load i64, ptr %value_length.addr, align 8
  call void @_ZN17grpc_auth_context12add_propertyEPKcS1_m(ptr noundef nonnull align 8 dereferenceable(56) %6, ptr noundef %7, ptr noundef %8, i64 noundef %9)
  ret void
}